target datalayout = "e-m:e-p270:32:32-p271:32:32-p272:64:64-i64:64-i128:128-f80:128-n8:16:32:64-S128"
target triple = "x86_64-pc-linux-gnu"

%"class.llvm::MachineOperand" = type { i32, %union.anon, ptr, %"union.llvm::MachineOperand::ContentsUnion" }
%union.anon = type { i32 }
%"union.llvm::MachineOperand::ContentsUnion" = type { %"class.llvm::ArrayRef.70" }
%"class.llvm::ArrayRef.70" = type { ptr, i64 }
%"class.llvm::MachineInstr" = type <{ %"class.llvm::ilist_node_with_parent", ptr, ptr, ptr, [3 x i8], %"class.llvm::ArrayRecycler<llvm::MachineOperand>::Capacity", i32, %"class.llvm::PointerSumType", %"class.llvm::DebugLoc", i32, i16, [2 x i8] }>
%"class.llvm::ilist_node_with_parent" = type { %"class.llvm::ilist_node" }
%"class.llvm::ilist_node" = type { %"class.llvm::ilist_node_impl" }
%"class.llvm::ilist_node_impl" = type { %"class.llvm::ilist_node_base" }
%"class.llvm::ilist_node_base" = type { %"class.llvm::ilist_detail::node_base_prevnext" }
%"class.llvm::ilist_detail::node_base_prevnext" = type { %"class.llvm::PointerIntPair", ptr }
%"class.llvm::PointerIntPair" = type { %"struct.llvm::detail::PunnedPointer" }
%"struct.llvm::detail::PunnedPointer" = type { [8 x i8] }
%"class.llvm::ArrayRecycler<llvm::MachineOperand>::Capacity" = type { i8 }
%"class.llvm::PointerSumType" = type { %"union.llvm::PointerSumType<llvm::MachineInstr::ExtraInfoInlineKinds, llvm::PointerSumTypeMember<0, llvm::MachineMemOperand *>, llvm::PointerSumTypeMember<1, llvm::MCSymbol *>, llvm::PointerSumTypeMember<2, llvm::MCSymbol *>, llvm::PointerSumTypeMember<3, llvm::MachineInstr::ExtraInfo *>>::StorageT" }
%"union.llvm::PointerSumType<llvm::MachineInstr::ExtraInfoInlineKinds, llvm::PointerSumTypeMember<0, llvm::MachineMemOperand *>, llvm::PointerSumTypeMember<1, llvm::MCSymbol *>, llvm::PointerSumTypeMember<2, llvm::MCSymbol *>, llvm::PointerSumTypeMember<3, llvm::MachineInstr::ExtraInfo *>>::StorageT" = type { i64 }
%"class.llvm::DebugLoc" = type { %"class.llvm::TypedTrackingMDRef" }
%"class.llvm::TypedTrackingMDRef" = type { %"class.llvm::TrackingMDRef" }
%"class.llvm::TrackingMDRef" = type { ptr }
%"class.llvm::MCInstrDesc" = type { i16, i16, i8, i8, i16, i8, i8, i16, i16, i64, i64 }
%"class.llvm::iterator_range" = type { ptr, ptr }

; Function Attrs: mustprogress nounwind uwtable
define linkonce_odr hidden noundef zeroext i1 @_ZNK4llvm14MachineOperand10isImplicitEv(ptr noundef nonnull align 8 dereferenceable(32) %0) #0 comdat align 2 {
  %2 = alloca ptr, align 8
  store ptr %0, ptr %2, align 8
  %3 = load ptr, ptr %2, align 8
  %4 = load i32, ptr %3, align 8
  %5 = lshr i32 %4, 25
  %6 = and i32 %5, 1
  %7 = icmp ne i32 %6, 0
  ret i1 %7
}

; Function Attrs: mustprogress nounwind uwtable
define linkonce_odr hidden noundef nonnull align 8 dereferenceable(32) ptr @_ZNK4llvm12MachineInstr10getOperandEj(ptr noundef nonnull align 8 dereferenceable(70) %0, i32 noundef %1) #0 comdat align 2 {
  %3 = alloca ptr, align 8
  %4 = alloca i32, align 4
  store ptr %0, ptr %3, align 8
  store i32 %1, ptr %4, align 4
  %5 = load ptr, ptr %3, align 8
  %6 = getelementptr inbounds nuw %"class.llvm::MachineInstr", ptr %5, i32 0, i32 3
  %7 = load ptr, ptr %6, align 8
  %8 = load i32, ptr %4, align 4
  %9 = zext i32 %8 to i64
  %10 = getelementptr inbounds %"class.llvm::MachineOperand", ptr %7, i64 %9
  ret ptr %10
}

; Function Attrs: mustprogress nounwind uwtable
define linkonce_odr hidden noundef i32 @_ZNK4llvm12MachineInstr14getNumOperandsEv(ptr noundef nonnull align 8 dereferenceable(70) %0) #0 comdat align 2 {
  %2 = alloca ptr, align 8
  store ptr %0, ptr %2, align 8
  %3 = load ptr, ptr %2, align 8
  %4 = getelementptr inbounds nuw %"class.llvm::MachineInstr", ptr %3, i32 0, i32 4
  %5 = load i24, ptr %4, align 8
  %6 = zext i24 %5 to i32
  ret i32 %6
}

; Function Attrs: mustprogress nounwind uwtable
define linkonce_odr hidden noundef zeroext i1 @_ZNK4llvm11MCInstrDesc10isVariadicEv(ptr noundef nonnull align 8 dereferenceable(32) %0) #0 comdat align 2 {
  %2 = alloca ptr, align 8
  store ptr %0, ptr %2, align 8
  %3 = load ptr, ptr %2, align 8
  %4 = getelementptr inbounds nuw %"class.llvm::MCInstrDesc", ptr %3, i32 0, i32 9
  %5 = load i64, ptr %4, align 8
  %6 = and i64 %5, 2
  %7 = icmp ne i64 %6, 0
  ret i1 %7
}

; Function Attrs: mustprogress nounwind uwtable
define linkonce_odr hidden noundef i32 @_ZNK4llvm11MCInstrDesc14getNumOperandsEv(ptr noundef nonnull align 8 dereferenceable(32) %0) #0 comdat align 2 {
  %2 = alloca ptr, align 8
  store ptr %0, ptr %2, align 8
  %3 = load ptr, ptr %2, align 8
  %4 = getelementptr inbounds nuw %"class.llvm::MCInstrDesc", ptr %3, i32 0, i32 1
  %5 = load i16, ptr %4, align 2
  %6 = zext i16 %5 to i32
  ret i32 %6
}

; Function Attrs: mustprogress nounwind uwtable
define linkonce_odr hidden void @_ZN4llvm14iterator_rangeIPKNS_14MachineOperandEEC2ES3_S3_(ptr noundef nonnull align 8 dereferenceable(16) %0, ptr noundef %1, ptr noundef %2) unnamed_addr #0 comdat align 2 {
  %4 = alloca ptr, align 8
  %5 = alloca ptr, align 8
  %6 = alloca ptr, align 8
  store ptr %0, ptr %4, align 8
  store ptr %1, ptr %5, align 8
  store ptr %2, ptr %6, align 8
  %7 = load ptr, ptr %4, align 8
  %8 = getelementptr inbounds nuw %"class.llvm::iterator_range", ptr %7, i32 0, i32 0
  %9 = load ptr, ptr %5, align 8
  store ptr %9, ptr %8, align 8
  %10 = getelementptr inbounds nuw %"class.llvm::iterator_range", ptr %7, i32 0, i32 1
  %11 = load ptr, ptr %6, align 8
  store ptr %11, ptr %10, align 8
  ret void
}

; Function Attrs: mustprogress nounwind uwtable
define dso_local noundef i32 @_ZNK4llvm12MachineInstr22getNumExplicitOperandsEv(ptr noundef nonnull align 8 dereferenceable(70) %0) #0 align 2 {
  %2 = alloca i32, align 4
  %3 = alloca ptr, align 8
  %4 = alloca i32, align 4
  %5 = alloca i32, align 4
  %6 = alloca i32, align 4
  %7 = alloca ptr, align 8
  store ptr %0, ptr %3, align 8
  %8 = load ptr, ptr %3, align 8
  %9 = getelementptr inbounds nuw %"class.llvm::MachineInstr", ptr %8, i32 0, i32 1
  %10 = load ptr, ptr %9, align 8
  %11 = call noundef i32 @_ZNK4llvm11MCInstrDesc14getNumOperandsEv(ptr noundef nonnull align 8 dereferenceable(32) %10)
  store i32 %11, ptr %4, align 4
  %12 = getelementptr inbounds nuw %"class.llvm::MachineInstr", ptr %8, i32 0, i32 1
  %13 = load ptr, ptr %12, align 8
  %14 = call noundef zeroext i1 @_ZNK4llvm11MCInstrDesc10isVariadicEv(ptr noundef nonnull align 8 dereferenceable(32) %13)
  br i1 %14, label %17, label %15

15:                                               ; preds = %1
  %16 = load i32, ptr %4, align 4
  store i32 %16, ptr %2, align 4
  br label %41

17:                                               ; preds = %1
  %18 = load i32, ptr %4, align 4
  store i32 %18, ptr %5, align 4
  %19 = call noundef i32 @_ZNK4llvm12MachineInstr14getNumOperandsEv(ptr noundef nonnull align 8 dereferenceable(70) %8)
  store i32 %19, ptr %6, align 4
  br label %20

20:                                               ; preds = %36, %17
  %21 = load i32, ptr %5, align 4
  %22 = load i32, ptr %6, align 4
  %23 = icmp ne i32 %21, %22
  br i1 %23, label %24, label %39

24:                                               ; preds = %20
  %25 = load i32, ptr %5, align 4
  %26 = call noundef nonnull align 8 dereferenceable(32) ptr @_ZNK4llvm12MachineInstr10getOperandEj(ptr noundef nonnull align 8 dereferenceable(70) %8, i32 noundef %25)
  store ptr %26, ptr %7, align 8
  %27 = load ptr, ptr %7, align 8
  %28 = call noundef zeroext i1 @_ZNK4llvm14MachineOperand5isRegEv(ptr noundef nonnull align 8 dereferenceable(32) %27)
  br i1 %28, label %29, label %33

29:                                               ; preds = %24
  %30 = load ptr, ptr %7, align 8
  %31 = call noundef zeroext i1 @_ZNK4llvm14MachineOperand10isImplicitEv(ptr noundef nonnull align 8 dereferenceable(32) %30)
  br i1 %31, label %32, label %33

32:                                               ; preds = %29
  br label %39

33:                                               ; preds = %29, %24
  %34 = load i32, ptr %4, align 4
  %35 = add i32 %34, 1
  store i32 %35, ptr %4, align 4
  br label %36

36:                                               ; preds = %33
  %37 = load i32, ptr %5, align 4
  %38 = add i32 %37, 1
  store i32 %38, ptr %5, align 4
  br label %20, !llvm.loop !11

39:                                               ; preds = %32, %20
  %40 = load i32, ptr %4, align 4
  store i32 %40, ptr %2, align 4
  br label %41

41:                                               ; preds = %39, %15
  %42 = load i32, ptr %2, align 4
  ret i32 %42
}

; Function Attrs: mustprogress nounwind uwtable
define linkonce_odr hidden noundef ptr @_ZNK4llvm12MachineInstr14operands_beginEv(ptr noundef nonnull align 8 dereferenceable(70) %0) #0 comdat align 2 {
  %2 = alloca ptr, align 8
  store ptr %0, ptr %2, align 8
  %3 = load ptr, ptr %2, align 8
  %4 = getelementptr inbounds nuw %"class.llvm::MachineInstr", ptr %3, i32 0, i32 3
  %5 = load ptr, ptr %4, align 8
  ret ptr %5
}

; Function Attrs: mustprogress nounwind uwtable
define linkonce_odr { ptr, ptr } @_ZN4llvm10make_rangeIPKNS_14MachineOperandEEENS_14iterator_rangeIT_EES5_S5_(ptr noundef %0, ptr noundef %1) #0 comdat {
  %3 = alloca %"class.llvm::iterator_range", align 8
  %4 = alloca ptr, align 8
  %5 = alloca ptr, align 8
  store ptr %0, ptr %4, align 8
  store ptr %1, ptr %5, align 8
  %6 = load ptr, ptr %4, align 8
  %7 = load ptr, ptr %5, align 8
  call void @_ZN4llvm14iterator_rangeIPKNS_14MachineOperandEEC2ES3_S3_(ptr noundef nonnull align 8 dereferenceable(16) %3, ptr noundef %6, ptr noundef %7)
  %8 = load { ptr, ptr }, ptr %3, align 8
  ret { ptr, ptr } %8
}

; Function Attrs: mustprogress nounwind uwtable
define linkonce_odr hidden noundef ptr @_ZNK4llvm12MachineInstr12operands_endEv(ptr noundef nonnull align 8 dereferenceable(70) %0) #0 comdat align 2 {
  %2 = alloca ptr, align 8
  store ptr %0, ptr %2, align 8
  %3 = load ptr, ptr %2, align 8
  %4 = getelementptr inbounds nuw %"class.llvm::MachineInstr", ptr %3, i32 0, i32 3
  %5 = load ptr, ptr %4, align 8
  %6 = getelementptr inbounds nuw %"class.llvm::MachineInstr", ptr %3, i32 0, i32 4
  %7 = load i24, ptr %6, align 8
  %8 = zext i24 %7 to i32
  %9 = sext i32 %8 to i64
  %10 = getelementptr inbounds %"class.llvm::MachineOperand", ptr %5, i64 %9
  ret ptr %10
}

; Function Attrs: mustprogress nounwind uwtable
define linkonce_odr hidden { ptr, ptr } @_ZNK4llvm12MachineInstr17explicit_operandsEv(ptr noundef nonnull align 8 dereferenceable(70) %0) #0 comdat align 2 {
  %2 = alloca %"class.llvm::iterator_range", align 8
  %3 = alloca ptr, align 8
  store ptr %0, ptr %3, align 8
  %4 = load ptr, ptr %3, align 8
  %5 = call noundef ptr @_ZNK4llvm12MachineInstr14operands_beginEv(ptr noundef nonnull align 8 dereferenceable(70) %4)
  %6 = call noundef ptr @_ZNK4llvm12MachineInstr14operands_beginEv(ptr noundef nonnull align 8 dereferenceable(70) %4)
  %7 = call noundef i32 @_ZNK4llvm12MachineInstr22getNumExplicitOperandsEv(ptr noundef nonnull align 8 dereferenceable(70) %4)
  %8 = zext i32 %7 to i64
  %9 = getelementptr inbounds %"class.llvm::MachineOperand", ptr %6, i64 %8
  %10 = call { ptr, ptr } @_ZN4llvm10make_rangeIPKNS_14MachineOperandEEENS_14iterator_rangeIT_EES5_S5_(ptr noundef %5, ptr noundef %9)
  %11 = getelementptr inbounds nuw { ptr, ptr }, ptr %2, i32 0, i32 0
  %12 = extractvalue { ptr, ptr } %10, 0
  store ptr %12, ptr %11, align 8
  %13 = getelementptr inbounds nuw { ptr, ptr }, ptr %2, i32 0, i32 1
  %14 = extractvalue { ptr, ptr } %10, 1
  store ptr %14, ptr %13, align 8
  %15 = load { ptr, ptr }, ptr %2, align 8
  ret { ptr, ptr } %15
}

; Function Attrs: mustprogress nounwind uwtable
define linkonce_odr hidden noundef zeroext i1 @_ZNK4llvm14MachineOperand6isDeadEv(ptr noundef nonnull align 8 dereferenceable(32) %0) #0 comdat align 2 {
  %2 = alloca ptr, align 8
  store ptr %0, ptr %2, align 8
  %3 = load ptr, ptr %2, align 8
  %4 = load i32, ptr %3, align 8
  %5 = lshr i32 %4, 26
  %6 = and i32 %5, 1
  %7 = load i32, ptr %3, align 8
  %8 = lshr i32 %7, 24
  %9 = and i32 %8, 1
  %10 = and i32 %6, %9
  %11 = icmp ne i32 %10, 0
  ret i1 %11
}

; Function Attrs: mustprogress nounwind uwtable
define linkonce_odr hidden noundef zeroext i1 @_ZNK4llvm14MachineOperand5isUseEv(ptr noundef nonnull align 8 dereferenceable(32) %0) #0 comdat align 2 {
  %2 = alloca ptr, align 8
  store ptr %0, ptr %2, align 8
  %3 = load ptr, ptr %2, align 8
  %4 = load i32, ptr %3, align 8
  %5 = lshr i32 %4, 24
  %6 = and i32 %5, 1
  %7 = icmp ne i32 %6, 0
  %8 = xor i1 %7, true
  ret i1 %8
}

; Function Attrs: mustprogress nounwind uwtable
define linkonce_odr hidden noundef zeroext i1 @_ZNK4llvm14MachineOperand5isRegEv(ptr noundef nonnull align 8 dereferenceable(32) %0) #0 comdat align 2 {
  %2 = alloca ptr, align 8
  store ptr %0, ptr %2, align 8
  %3 = load ptr, ptr %2, align 8
  %4 = load i32, ptr %3, align 8
  %5 = and i32 %4, 255
  %6 = icmp eq i32 %5, 0
  ret i1 %6
}

; Function Attrs: mustprogress nounwind uwtable
define linkonce_odr hidden noundef ptr @_ZNK4llvm14iterator_rangeIPKNS_14MachineOperandEE3endEv(ptr noundef nonnull align 8 dereferenceable(16) %0) #0 comdat align 2 {
  %2 = alloca ptr, align 8
  store ptr %0, ptr %2, align 8
  %3 = load ptr, ptr %2, align 8
  %4 = getelementptr inbounds nuw %"class.llvm::iterator_range", ptr %3, i32 0, i32 1
  %5 = load ptr, ptr %4, align 8
  ret ptr %5
}

; Function Attrs: mustprogress nounwind uwtable
define linkonce_odr hidden noundef ptr @_ZNK4llvm14iterator_rangeIPKNS_14MachineOperandEE5beginEv(ptr noundef nonnull align 8 dereferenceable(16) %0) #0 comdat align 2 {
  %2 = alloca ptr, align 8
  store ptr %0, ptr %2, align 8
  %3 = load ptr, ptr %2, align 8
  %4 = getelementptr inbounds nuw %"class.llvm::iterator_range", ptr %3, i32 0, i32 0
  %5 = load ptr, ptr %4, align 8
  ret ptr %5
}

; Function Attrs: mustprogress nounwind uwtable
define linkonce_odr hidden { ptr, ptr } @_ZNK4llvm12MachineInstr17implicit_operandsEv(ptr noundef nonnull align 8 dereferenceable(70) %0) #0 comdat align 2 {
  %2 = alloca %"class.llvm::iterator_range", align 8
  %3 = alloca ptr, align 8
  %4 = alloca %"class.llvm::iterator_range", align 8
  store ptr %0, ptr %3, align 8
  %5 = load ptr, ptr %3, align 8
  %6 = call { ptr, ptr } @_ZNK4llvm12MachineInstr17explicit_operandsEv(ptr noundef nonnull align 8 dereferenceable(70) %5)
  %7 = getelementptr inbounds nuw { ptr, ptr }, ptr %4, i32 0, i32 0
  %8 = extractvalue { ptr, ptr } %6, 0
  store ptr %8, ptr %7, align 8
  %9 = getelementptr inbounds nuw { ptr, ptr }, ptr %4, i32 0, i32 1
  %10 = extractvalue { ptr, ptr } %6, 1
  store ptr %10, ptr %9, align 8
  %11 = call noundef ptr @_ZNK4llvm14iterator_rangeIPKNS_14MachineOperandEE3endEv(ptr noundef nonnull align 8 dereferenceable(16) %4)
  %12 = call noundef ptr @_ZNK4llvm12MachineInstr12operands_endEv(ptr noundef nonnull align 8 dereferenceable(70) %5)
  %13 = call { ptr, ptr } @_ZN4llvm10make_rangeIPKNS_14MachineOperandEEENS_14iterator_rangeIT_EES5_S5_(ptr noundef %11, ptr noundef %12)
  %14 = getelementptr inbounds nuw { ptr, ptr }, ptr %2, i32 0, i32 0
  %15 = extractvalue { ptr, ptr } %13, 0
  store ptr %15, ptr %14, align 8
  %16 = getelementptr inbounds nuw { ptr, ptr }, ptr %2, i32 0, i32 1
  %17 = extractvalue { ptr, ptr } %13, 1
  store ptr %17, ptr %16, align 8
  %18 = load { ptr, ptr }, ptr %2, align 8
  ret { ptr, ptr } %18
}

; Function Attrs: mustprogress nounwind uwtable
define dso_local noundef zeroext i1 @_ZNK4llvm12MachineInstr22allImplicitDefsAreDeadEv(ptr noundef nonnull align 8 dereferenceable(70) %0) #0 align 2 {
  %2 = alloca i1, align 1
  %3 = alloca ptr, align 8
  %4 = alloca ptr, align 8
  %5 = alloca %"class.llvm::iterator_range", align 8
  %6 = alloca ptr, align 8
  %7 = alloca ptr, align 8
  %8 = alloca ptr, align 8
  store ptr %0, ptr %3, align 8
  %9 = load ptr, ptr %3, align 8
  %10 = call { ptr, ptr } @_ZNK4llvm12MachineInstr17implicit_operandsEv(ptr noundef nonnull align 8 dereferenceable(70) %9)
  %11 = getelementptr inbounds nuw { ptr, ptr }, ptr %5, i32 0, i32 0
  %12 = extractvalue { ptr, ptr } %10, 0
  store ptr %12, ptr %11, align 8
  %13 = getelementptr inbounds nuw { ptr, ptr }, ptr %5, i32 0, i32 1
  %14 = extractvalue { ptr, ptr } %10, 1
  store ptr %14, ptr %13, align 8
  store ptr %5, ptr %4, align 8
  %15 = load ptr, ptr %4, align 8
  %16 = call noundef ptr @_ZNK4llvm14iterator_rangeIPKNS_14MachineOperandEE5beginEv(ptr noundef nonnull align 8 dereferenceable(16) %15)
  store ptr %16, ptr %6, align 8
  %17 = load ptr, ptr %4, align 8
  %18 = call noundef ptr @_ZNK4llvm14iterator_rangeIPKNS_14MachineOperandEE3endEv(ptr noundef nonnull align 8 dereferenceable(16) %17)
  store ptr %18, ptr %7, align 8
  br label %19

19:                                               ; preds = %36, %1
  %20 = load ptr, ptr %6, align 8
  %21 = load ptr, ptr %7, align 8
  %22 = icmp ne ptr %20, %21
  br i1 %22, label %23, label %39

23:                                               ; preds = %19
  %24 = load ptr, ptr %6, align 8
  store ptr %24, ptr %8, align 8
  %25 = load ptr, ptr %8, align 8
  %26 = call noundef zeroext i1 @_ZNK4llvm14MachineOperand5isRegEv(ptr noundef nonnull align 8 dereferenceable(32) %25)
  br i1 %26, label %27, label %30

27:                                               ; preds = %23
  %28 = load ptr, ptr %8, align 8
  %29 = call noundef zeroext i1 @_ZNK4llvm14MachineOperand5isUseEv(ptr noundef nonnull align 8 dereferenceable(32) %28)
  br i1 %29, label %30, label %31

30:                                               ; preds = %27, %23
  br label %36

31:                                               ; preds = %27
  %32 = load ptr, ptr %8, align 8
  %33 = call noundef zeroext i1 @_ZNK4llvm14MachineOperand6isDeadEv(ptr noundef nonnull align 8 dereferenceable(32) %32)
  br i1 %33, label %35, label %34

34:                                               ; preds = %31
  store i1 false, ptr %2, align 1
  br label %40

35:                                               ; preds = %31
  br label %36

36:                                               ; preds = %35, %30
  %37 = load ptr, ptr %6, align 8
  %38 = getelementptr inbounds %"class.llvm::MachineOperand", ptr %37, i32 1
  store ptr %38, ptr %6, align 8
  br label %19

39:                                               ; preds = %19
  store i1 true, ptr %2, align 1
  br label %40

40:                                               ; preds = %39, %34
  %41 = load i1, ptr %2, align 1
  ret i1 %41
}