; Function Attrs: mustprogress nofree norecurse nosync nounwind willreturn memory(read, inaccessiblemem: none) uwtable
define dso_local noundef zeroext i1 @_ZNK4llvm12MachineInstr22allImplicitDefsAreDeadEv(ptr nocapture noundef nonnull readonly align 8 dereferenceable(70) %0) local_unnamed_addr #3 align 2 {
  %2 = getelementptr inbounds nuw i8, ptr %0, i64 32
  %3 = load ptr, ptr %2, align 8
  %4 = getelementptr inbounds nuw i8, ptr %0, i64 16
  %5 = load ptr, ptr %4, align 8
  %6 = getelementptr inbounds nuw i8, ptr %5, i64 2
  %7 = load i16, ptr %6, align 2
  %8 = zext i16 %7 to i32
  %9 = getelementptr inbounds nuw i8, ptr %5, i64 16
  %10 = load i64, ptr %9, align 8
  %11 = and i64 %10, 2
  %.not14.i.i.i = icmp eq i64 %11, 0
  %.phi.trans.insert.i = getelementptr inbounds nuw i8, ptr %0, i64 40
  %.pre.i = load i24, ptr %.phi.trans.insert.i, align 8
  br i1 %.not14.i.i.i, label %_ZNK4llvm12MachineInstr17implicit_operandsEv.exit, label %12

12:                                               ; preds = %1
  %13 = zext i24 %.pre.i to i32
  %.not15.i.i.i = icmp eq i32 %8, %13
  br i1 %.not15.i.i.i, label %_ZNK4llvm12MachineInstr17implicit_operandsEv.exit, label %.lr.ph.i.i.i

.lr.ph.i.i.i:                                     ; preds = %12, %18
  %.01117.i.i.i = phi i32 [ %19, %18 ], [ %8, %12 ]
  %14 = zext i32 %.01117.i.i.i to i64
  %15 = getelementptr inbounds %"class.llvm::MachineOperand", ptr %3, i64 %14
  %16 = load i32, ptr %15, align 8
  %17 = and i32 %16, 33554687
  %or.cond.i.i.i = icmp eq i32 %17, 33554432
  br i1 %or.cond.i.i.i, label %_ZNK4llvm12MachineInstr17implicit_operandsEv.exit, label %18

18:                                               ; preds = %.lr.ph.i.i.i
  %19 = add i32 %.01117.i.i.i, 1
  %.not.i.i.i = icmp eq i32 %19, %13
  br i1 %.not.i.i.i, label %_ZNK4llvm12MachineInstr17implicit_operandsEv.exit, label %.lr.ph.i.i.i, !llvm.loop !26

_ZNK4llvm12MachineInstr17implicit_operandsEv.exit: ; preds = %.lr.ph.i.i.i, %18, %1, %12
  %.0.i.i.i = phi i32 [ %8, %12 ], [ %8, %1 ], [ %.01117.i.i.i, %.lr.ph.i.i.i ], [ %13, %18 ]
  %20 = zext i32 %.0.i.i.i to i64
  %21 = zext i24 %.pre.i to i64
  %22 = getelementptr inbounds %"class.llvm::MachineOperand", ptr %3, i64 %21
  %.not14 = icmp eq i64 %20, %21
  br i1 %.not14, label %._crit_edge, label %.lr.ph.preheader

.lr.ph.preheader:                                 ; preds = %_ZNK4llvm12MachineInstr17implicit_operandsEv.exit
  %23 = getelementptr inbounds %"class.llvm::MachineOperand", ptr %3, i64 %20
  br label %.lr.ph

.lr.ph:                                           ; preds = %.lr.ph, %.lr.ph.preheader
  %.01115 = phi ptr [ %23, %.lr.ph.preheader ], [ %28, %.lr.ph ]
  %24 = load i32, ptr %.01115, align 8
  %25 = and i32 %24, 16777471
  %or.cond = icmp ne i32 %25, 16777216
  %26 = and i32 %24, 83886080
  %27 = icmp eq i32 %26, 83886080
  %or.cond13 = or i1 %or.cond, %27
  %28 = getelementptr inbounds i8, ptr %.01115, i64 32
  %.not = icmp ne ptr %28, %22
  %or.cond19.not = select i1 %or.cond13, i1 %.not, i1 false
  br i1 %or.cond19.not, label %.lr.ph, label %._crit_edge

._crit_edge:                                      ; preds = %.lr.ph, %_ZNK4llvm12MachineInstr17implicit_operandsEv.exit
  %.not.lcssa = phi i1 [ true, %_ZNK4llvm12MachineInstr17implicit_operandsEv.exit ], [ %or.cond13, %.lr.ph ]
  ret i1 %.not.lcssa
}